; Function Attrs: nounwind uwtable
define internal { i64, ptr } @f_debug(ptr noundef %0, i64 %1, ptr %2) #0 {
  %4 = alloca ptr, align 8
  %5 = alloca ptr, align 8
  call void @llvm.lifetime.start.p0(i64 8, ptr nonnull %4) #14
  call void @llvm.lifetime.start.p0(i64 8, ptr nonnull %5) #14
  call void @jq_get_debug_cb(ptr noundef %0, ptr noundef nonnull %4, ptr noundef nonnull %5) #14
  %6 = load ptr, ptr %4, align 8, !tbaa !56
  %.not = icmp eq ptr %6, null
  br i1 %.not, label %12, label %7

7:                                                ; preds = %3
  %8 = load ptr, ptr %5, align 8, !tbaa !56
  %9 = call { i64, ptr } @jv_copy(i64 %1, ptr %2) #14
  %10 = extractvalue { i64, ptr } %9, 0
  %11 = extractvalue { i64, ptr } %9, 1
  call void %6(ptr noundef %8, i64 %10, ptr %11) #14
  br label %12

12:                                               ; preds = %7, %3
  call void @llvm.lifetime.end.p0(i64 8, ptr nonnull %5) #14
  call void @llvm.lifetime.end.p0(i64 8, ptr nonnull %4) #14
  %.fca.0.insert = insertvalue { i64, ptr } poison, i64 %1, 0
  %.fca.1.insert = insertvalue { i64, ptr } %.fca.0.insert, ptr %2, 1
  ret { i64, ptr } %.fca.1.insert
}